target datalayout = "e-m:e-p270:32:32-p271:32:32-p272:64:64-i64:64-i128:128-f80:128-n8:16:32:64-S128"
target triple = "x86_64-pc-linux-gnu"

%union.SourceSpan = type { i64 }
%struct.Decl_ = type { ptr, ptr, %union.SourceSpan, i64, %union.anon, i32, %union.anon.0, i64, ptr, ptr, ptr, %union.anon.1 }
%union.anon = type { ptr }
%union.anon.0 = type { i16 }
%union.anon.1 = type { %struct.FuncDecl }
%struct.FuncDecl = type { i32, [4 x i8], %struct.Signature_, i32, i32, %union.anon.8 }
%struct.Signature_ = type <{ %struct.CalleeAttributes, i16, i8, i32, i32, [4 x i8], ptr }>
%struct.CalleeAttributes = type { i8 }
%union.anon.8 = type { %struct.anon.9 }
%struct.anon.9 = type { i16, %union.anon.10 }
%union.anon.10 = type { ptr }

@.str.4 = private unnamed_addr constant [36 x i8] c"FATAL ERROR %s -> in %s @ in %s:%d \00", align 1
@.str.5 = private unnamed_addr constant [22 x i8] c"Should be unreachable\00", align 1
@__func__.decl_register = private unnamed_addr constant [14 x i8] c"decl_register\00", align 1
@.str.6 = private unnamed_addr constant [108 x i8] c"generated/home/dtcxzyw/WorkSpace/Projects/compilers/llvm-opt-benchmark/bench/c3c/c3c/src/compiler/context.c\00", align 1

; Function Attrs: nounwind uwtable
define dso_local void @decl_register(ptr noundef %0) #0 {
  %2 = alloca ptr, align 8
  store ptr %0, ptr %2, align 8
  %3 = load ptr, ptr %2, align 8
  %4 = getelementptr inbounds %struct.Decl_, ptr %3, i32 0, i32 3
  %5 = load i64, ptr %4, align 8
  %6 = lshr i64 %5, 10
  %7 = and i64 %6, 7
  %8 = trunc i64 %7 to i32
  %9 = icmp sgt i32 %8, 0
  br i1 %9, label %10, label %11

10:                                               ; preds = %1
  br label %23

11:                                               ; preds = %1
  %12 = load ptr, ptr %2, align 8
  %13 = getelementptr inbounds %struct.Decl_, ptr %12, i32 0, i32 3
  %14 = load i64, ptr %13, align 8
  %15 = and i64 %14, 127
  %16 = trunc i64 %15 to i32
  switch i32 %16, label %23 [
    i32 13, label %17
    i32 0, label %18
    i32 4, label %18
    i32 5, label %18
    i32 6, label %18
    i32 12, label %18
    i32 15, label %18
    i32 19, label %18
    i32 20, label %18
    i32 8, label %18
    i32 3, label %18
    i32 7, label %18
    i32 18, label %18
    i32 1, label %21
    i32 2, label %21
    i32 10, label %21
    i32 14, label %21
    i32 11, label %21
    i32 23, label %21
    i32 24, label %21
    i32 25, label %21
    i32 9, label %21
    i32 17, label %21
    i32 21, label %21
    i32 26, label %21
    i32 16, label %21
    i32 22, label %21
  ]

17:                                               ; preds = %11
  br label %23

18:                                               ; preds = %11, %11, %11, %11, %11, %11, %11, %11, %11, %11, %11, %11
  br label %19

19:                                               ; preds = %18
  call void (ptr, ...) @error_exit(ptr noundef @.str.4, ptr noundef @.str.5, ptr noundef @__func__.decl_register, ptr noundef @.str.6, i32 noundef 137) #6
  unreachable

20:                                               ; No predecessors!
  br label %21

21:                                               ; preds = %20, %11, %11, %11, %11, %11, %11, %11, %11, %11, %11, %11, %11, %11, %11
  %22 = load ptr, ptr %2, align 8
  call void @global_context_add_decl(ptr noundef %22)
  br label %23

23:                                               ; preds = %21, %17, %11, %10
  ret void
}