; Function Attrs: nounwind uwtable
define dso_local void @decl_register(ptr noundef %0) local_unnamed_addr #0 {
  %2 = getelementptr inbounds i8, ptr %0, i64 24
  %3 = load i64, ptr %2, align 8
  %4 = and i64 %3, 7168
  %.not = icmp eq i64 %4, 0
  br i1 %.not, label %5, label %10

5:                                                ; preds = %1
  %6 = trunc i64 %3 to i32
  %7 = and i32 %6, 127
  switch i32 %7, label %10 [
    i32 22, label %9
    i32 0, label %8
    i32 4, label %8
    i32 5, label %8
    i32 6, label %8
    i32 12, label %8
    i32 15, label %8
    i32 19, label %8
    i32 20, label %8
    i32 8, label %8
    i32 3, label %8
    i32 7, label %8
    i32 18, label %8
    i32 1, label %9
    i32 2, label %9
    i32 10, label %9
    i32 14, label %9
    i32 11, label %9
    i32 23, label %9
    i32 24, label %9
    i32 25, label %9
    i32 9, label %9
    i32 17, label %9
    i32 21, label %9
    i32 26, label %9
    i32 16, label %9
  ]

8:                                                ; preds = %5, %5, %5, %5, %5, %5, %5, %5, %5, %5, %5, %5
  tail call void (ptr, ...) @error_exit(ptr noundef nonnull @.str.4, ptr noundef nonnull @.str.5, ptr noundef nonnull @__func__.decl_register, ptr noundef nonnull @.str.6, i32 noundef 137) #8
  unreachable

9:                                                ; preds = %5, %5, %5, %5, %5, %5, %5, %5, %5, %5, %5, %5, %5, %5
  tail call void @global_context_add_decl(ptr noundef nonnull %0) #6
  br label %10

10:                                               ; preds = %1, %9, %5
  ret void
}